; ModuleID = 'source-C-CXX/9/1241.cpp'
source_filename = "source-C-CXX/9/1241.cpp"
target datalayout = "e-m:e-p270:32:32-p271:32:32-p272:64:64-i64:64-f80:128-n8:16:32:64-S128"
target triple = "x86_64-pc-linux-gnu"

%"class.std::ios_base::Init" = type { i8 }
%"class.std::basic_istream" = type { i32 (...)**, i64, %"class.std::basic_ios" }
%"class.std::basic_ios" = type { %"class.std::ios_base", %"class.std::basic_ostream"*, i8, i8, %"class.std::basic_streambuf"*, %"class.std::ctype"*, %"class.std::num_put"*, %"class.std::num_get"* }
%"class.std::ios_base" = type { i32 (...)**, i64, i64, i32, i32, i32, %"struct.std::ios_base::_Callback_list"*, %"struct.std::ios_base::_Words", [8 x %"struct.std::ios_base::_Words"], i32, %"struct.std::ios_base::_Words"*, %"class.std::locale" }
%"struct.std::ios_base::_Callback_list" = type { %"struct.std::ios_base::_Callback_list"*, void (i32, %"class.std::ios_base"*, i32)*, i32, i32 }
%"struct.std::ios_base::_Words" = type { i8*, i64 }
%"class.std::locale" = type { %"class.std::locale::_Impl"* }
%"class.std::locale::_Impl" = type { i32, %"class.std::locale::facet"**, i64, %"class.std::locale::facet"**, i8** }
%"class.std::locale::facet" = type <{ i32 (...)**, i32, [4 x i8] }>
%"class.std::basic_ostream" = type { i32 (...)**, %"class.std::basic_ios" }
%"class.std::basic_streambuf" = type { i32 (...)**, i8*, i8*, i8*, i8*, i8*, i8*, %"class.std::locale" }
%"class.std::ctype" = type <{ %"class.std::locale::facet.base", [4 x i8], %struct.__locale_struct*, i8, [7 x i8], i32*, i32*, i16*, i8, [256 x i8], [256 x i8], i8, [6 x i8] }>
%"class.std::locale::facet.base" = type <{ i32 (...)**, i32 }>
%struct.__locale_struct = type { [13 x %struct.__locale_data*], i16*, i32*, i32*, [13 x i8*] }
%struct.__locale_data = type opaque
%"class.std::num_put" = type { %"class.std::locale::facet.base", [4 x i8] }
%"class.std::num_get" = type { %"class.std::locale::facet.base", [4 x i8] }

@_ZStL8__ioinit = internal global %"class.std::ios_base::Init" zeroinitializer, align 1
@__dso_handle = external hidden global i8
@_ZSt3cin = external global %"class.std::basic_istream", align 8
@_ZSt4cout = external global %"class.std::basic_ostream", align 8
@llvm.global_ctors = appending global [1 x { i32, void ()*, i8* }] [{ i32, void ()*, i8* } { i32 65535, void ()* @_GLOBAL__sub_I_1241.cpp, i8* null }]

declare void @_ZNSt8ios_base4InitC1Ev(%"class.std::ios_base::Init"* nonnull align 1 dereferenceable(1)) unnamed_addr #0

; Function Attrs: nounwind
declare void @_ZNSt8ios_base4InitD1Ev(%"class.std::ios_base::Init"* nonnull align 1 dereferenceable(1)) unnamed_addr #1

; Function Attrs: nofree nounwind
declare i32 @__cxa_atexit(void (i8*)*, i8*, i8*) local_unnamed_addr #2

; Function Attrs: mustprogress norecurse sspstrong uwtable
define dso_local i32 @main() local_unnamed_addr #3 {
  %1 = alloca i32, align 4
  %2 = alloca [30 x i32], align 16
  %3 = alloca [30 x i32], align 16
  %4 = bitcast i32* %1 to i8*
  call void @llvm.lifetime.start.p0i8(i64 4, i8* nonnull %4) #6
  %5 = call nonnull align 8 dereferenceable(16) %"class.std::basic_istream"* @_ZNSirsERi(%"class.std::basic_istream"* nonnull align 8 dereferenceable(16) @_ZSt3cin, i32* nonnull align 4 dereferenceable(4) %1)
  %6 = bitcast [30 x i32]* %2 to i8*
  call void @llvm.lifetime.start.p0i8(i64 120, i8* nonnull %6) #6
  %7 = bitcast [30 x i32]* %3 to i8*
  call void @llvm.lifetime.start.p0i8(i64 120, i8* nonnull %7) #6
  %8 = load i32, i32* %1, align 4, !tbaa !5
  %9 = icmp slt i32 %8, 1
  br i1 %9, label %78, label %14

10:                                               ; preds = %14
  %11 = icmp sgt i32 %20, 0
  br i1 %11, label %12, label %78

12:                                               ; preds = %10
  %13 = zext i32 %20 to i64
  br label %23

14:                                               ; preds = %0, %14
  %15 = phi i64 [ %19, %14 ], [ 1, %0 ]
  %16 = getelementptr inbounds [30 x i32], [30 x i32]* %2, i64 0, i64 %15
  %17 = call nonnull align 8 dereferenceable(16) %"class.std::basic_istream"* @_ZNSirsERi(%"class.std::basic_istream"* nonnull align 8 dereferenceable(16) @_ZSt3cin, i32* nonnull align 4 dereferenceable(4) %16)
  %18 = getelementptr inbounds [30 x i32], [30 x i32]* %3, i64 0, i64 %15
  store i32 0, i32* %18, align 4, !tbaa !5
  %19 = add nuw nsw i64 %15, 1
  %20 = load i32, i32* %1, align 4, !tbaa !5
  %21 = sext i32 %20 to i64
  %22 = icmp slt i64 %15, %21
  br i1 %22, label %14, label %10, !llvm.loop !9

23:                                               ; preds = %12, %50
  %24 = phi i64 [ 0, %12 ], [ %58, %50 ]
  %25 = phi i64 [ %13, %12 ], [ %56, %50 ]
  %26 = phi i32 [ 0, %12 ], [ %55, %50 ]
  %27 = icmp slt i64 %25, %13
  br i1 %27, label %28, label %50

28:                                               ; preds = %23
  %29 = getelementptr inbounds [30 x i32], [30 x i32]* %2, i64 0, i64 %25
  %30 = load i32, i32* %29, align 4, !tbaa !5
  %31 = and i64 %24, 1
  %32 = icmp eq i64 %24, 1
  br i1 %32, label %35, label %33

33:                                               ; preds = %28
  %34 = and i64 %24, -2
  br label %59

35:                                               ; preds = %86, %28
  %36 = phi i32 [ undef, %28 ], [ %87, %86 ]
  %37 = phi i64 [ %25, %28 ], [ %74, %86 ]
  %38 = phi i32 [ 0, %28 ], [ %87, %86 ]
  %39 = icmp eq i64 %31, 0
  br i1 %39, label %50, label %40

40:                                               ; preds = %35
  %41 = add nsw i64 %37, 1
  %42 = getelementptr inbounds [30 x i32], [30 x i32]* %2, i64 0, i64 %41
  %43 = load i32, i32* %42, align 4, !tbaa !5
  %44 = icmp slt i32 %30, %43
  br i1 %44, label %50, label %45

45:                                               ; preds = %40
  %46 = getelementptr inbounds [30 x i32], [30 x i32]* %3, i64 0, i64 %41
  %47 = load i32, i32* %46, align 4, !tbaa !5
  %48 = icmp sgt i32 %47, %38
  %49 = select i1 %48, i32 %47, i32 %38
  br label %50

50:                                               ; preds = %35, %40, %45, %23
  %51 = phi i32 [ 0, %23 ], [ %36, %35 ], [ %38, %40 ], [ %49, %45 ]
  %52 = add nsw i32 %51, 1
  %53 = getelementptr inbounds [30 x i32], [30 x i32]* %3, i64 0, i64 %25
  store i32 %52, i32* %53, align 4, !tbaa !5
  %54 = icmp slt i32 %51, %26
  %55 = select i1 %54, i32 %26, i32 %52
  %56 = add nsw i64 %25, -1
  %57 = icmp sgt i64 %25, 1
  %58 = add i64 %24, 1
  br i1 %57, label %23, label %78, !llvm.loop !11

59:                                               ; preds = %86, %33
  %60 = phi i64 [ %25, %33 ], [ %74, %86 ]
  %61 = phi i32 [ 0, %33 ], [ %87, %86 ]
  %62 = phi i64 [ %34, %33 ], [ %88, %86 ]
  %63 = add nsw i64 %60, 1
  %64 = getelementptr inbounds [30 x i32], [30 x i32]* %2, i64 0, i64 %63
  %65 = load i32, i32* %64, align 4, !tbaa !5
  %66 = icmp slt i32 %30, %65
  br i1 %66, label %72, label %67

67:                                               ; preds = %59
  %68 = getelementptr inbounds [30 x i32], [30 x i32]* %3, i64 0, i64 %63
  %69 = load i32, i32* %68, align 4, !tbaa !5
  %70 = icmp sgt i32 %69, %61
  %71 = select i1 %70, i32 %69, i32 %61
  br label %72

72:                                               ; preds = %67, %59
  %73 = phi i32 [ %61, %59 ], [ %71, %67 ]
  %74 = add nsw i64 %60, 2
  %75 = getelementptr inbounds [30 x i32], [30 x i32]* %2, i64 0, i64 %74
  %76 = load i32, i32* %75, align 4, !tbaa !5
  %77 = icmp slt i32 %30, %76
  br i1 %77, label %86, label %81

78:                                               ; preds = %50, %0, %10
  %79 = phi i32 [ 0, %10 ], [ 0, %0 ], [ %55, %50 ]
  %80 = call nonnull align 8 dereferenceable(8) %"class.std::basic_ostream"* @_ZNSolsEi(%"class.std::basic_ostream"* nonnull align 8 dereferenceable(8) @_ZSt4cout, i32 %79)
  call void @llvm.lifetime.end.p0i8(i64 120, i8* nonnull %7) #6
  call void @llvm.lifetime.end.p0i8(i64 120, i8* nonnull %6) #6
  call void @llvm.lifetime.end.p0i8(i64 4, i8* nonnull %4) #6
  ret i32 0

81:                                               ; preds = %72
  %82 = getelementptr inbounds [30 x i32], [30 x i32]* %3, i64 0, i64 %74
  %83 = load i32, i32* %82, align 4, !tbaa !5
  %84 = icmp sgt i32 %83, %73
  %85 = select i1 %84, i32 %83, i32 %73
  br label %86

86:                                               ; preds = %81, %72
  %87 = phi i32 [ %73, %72 ], [ %85, %81 ]
  %88 = add i64 %62, -2
  %89 = icmp eq i64 %88, 0
  br i1 %89, label %35, label %59, !llvm.loop !12
}

; Function Attrs: argmemonly mustprogress nofree nosync nounwind willreturn
declare void @llvm.lifetime.start.p0i8(i64 immarg, i8* nocapture) #4

declare nonnull align 8 dereferenceable(16) %"class.std::basic_istream"* @_ZNSirsERi(%"class.std::basic_istream"* nonnull align 8 dereferenceable(16), i32* nonnull align 4 dereferenceable(4)) local_unnamed_addr #0

; Function Attrs: argmemonly mustprogress nofree nosync nounwind willreturn
declare void @llvm.lifetime.end.p0i8(i64 immarg, i8* nocapture) #4

declare nonnull align 8 dereferenceable(8) %"class.std::basic_ostream"* @_ZNSolsEi(%"class.std::basic_ostream"* nonnull align 8 dereferenceable(8), i32) local_unnamed_addr #0

; Function Attrs: sspstrong uwtable
define internal void @_GLOBAL__sub_I_1241.cpp() #5 section ".text.startup" {
  tail call void @_ZNSt8ios_base4InitC1Ev(%"class.std::ios_base::Init"* nonnull align 1 dereferenceable(1) @_ZStL8__ioinit)
  %1 = tail call i32 @__cxa_atexit(void (i8*)* bitcast (void (%"class.std::ios_base::Init"*)* @_ZNSt8ios_base4InitD1Ev to void (i8*)*), i8* getelementptr inbounds (%"class.std::ios_base::Init", %"class.std::ios_base::Init"* @_ZStL8__ioinit, i64 0, i32 0), i8* nonnull @__dso_handle) #6
  ret void
}


!llvm.module.flags = !{!0, !1, !2, !3}
!llvm.ident = !{!4}

!0 = !{i32 1, !"wchar_size", i32 4}
!1 = !{i32 7, !"PIC Level", i32 2}
!2 = !{i32 7, !"PIE Level", i32 2}
!3 = !{i32 7, !"uwtable", i32 1}
!4 = !{!"clang version 13.0.0"}
!5 = !{!6, !6, i64 0}
!6 = !{!"int", !7, i64 0}
!7 = !{!"omnipotent char", !8, i64 0}
!8 = !{!"Simple C++ TBAA"}
!9 = distinct !{!9, !10}
!10 = !{!"llvm.loop.mustprogress"}
!11 = distinct !{!11, !10}
!12 = distinct !{!12, !10}
